target datalayout = "e-m:e-p270:32:32-p271:32:32-p272:64:64-i64:64-i128:128-f80:128-n8:16:32:64-S128"
target triple = "x86_64-pc-linux-gnu"

%"class.cv::Mat" = type { i32, i32, i32, i32, ptr, ptr, ptr, ptr, ptr, ptr, %"struct.cv::MatSize", %"struct.cv::MatStep" }
%"struct.cv::MatSize" = type { ptr }
%"struct.cv::MatStep" = type { ptr, [2 x i64] }
%"class.cv::ml::SVMSGDImpl" = type { %"class.cv::ml::SVMSGD", %"class.cv::Mat", float, %"struct.cv::ml::SVMSGDImpl::SVMSGDParams" }
%"class.cv::ml::SVMSGD" = type { %"class.cv::ml::StatModel" }
%"class.cv::ml::StatModel" = type { %"class.cv::Algorithm" }
%"class.cv::Algorithm" = type { ptr }
%"struct.cv::ml::SVMSGDImpl::SVMSGDParams" = type { float, float, float, %"class.cv::TermCriteria", i32, i32 }
%"class.cv::TermCriteria" = type { i32, i32, double }

; Function Attrs: mustprogress nounwind uwtable
define hidden noundef zeroext i1 @_ZNK2cv2ml10SVMSGDImpl12isClassifierEv(ptr noundef nonnull align 8 dereferenceable(152) %0) unnamed_addr #9 align 2 {
  %2 = alloca ptr, align 8
  store ptr %0, ptr %2, align 8, !tbaa !62
  %3 = load ptr, ptr %2, align 8
  %4 = getelementptr inbounds nuw %"class.cv::ml::SVMSGDImpl", ptr %3, i32 0, i32 3
  %5 = getelementptr inbounds nuw %"struct.cv::ml::SVMSGDImpl::SVMSGDParams", ptr %4, i32 0, i32 4
  %6 = load i32, ptr %5, align 8, !tbaa !82
  %7 = icmp eq i32 %6, 0
  br i1 %7, label %13, label %8

8:                                                ; preds = %1
  %9 = getelementptr inbounds nuw %"class.cv::ml::SVMSGDImpl", ptr %3, i32 0, i32 3
  %10 = getelementptr inbounds nuw %"struct.cv::ml::SVMSGDImpl::SVMSGDParams", ptr %9, i32 0, i32 4
  %11 = load i32, ptr %10, align 8, !tbaa !82
  %12 = icmp eq i32 %11, 1
  br i1 %12, label %13, label %38

13:                                               ; preds = %8, %1
  %14 = getelementptr inbounds nuw %"class.cv::ml::SVMSGDImpl", ptr %3, i32 0, i32 3
  %15 = getelementptr inbounds nuw %"struct.cv::ml::SVMSGDImpl::SVMSGDParams", ptr %14, i32 0, i32 5
  %16 = load i32, ptr %15, align 4, !tbaa !89
  %17 = icmp eq i32 %16, 0
  br i1 %17, label %23, label %18

18:                                               ; preds = %13
  %19 = getelementptr inbounds nuw %"class.cv::ml::SVMSGDImpl", ptr %3, i32 0, i32 3
  %20 = getelementptr inbounds nuw %"struct.cv::ml::SVMSGDImpl::SVMSGDParams", ptr %19, i32 0, i32 5
  %21 = load i32, ptr %20, align 4, !tbaa !89
  %22 = icmp eq i32 %21, 1
  br i1 %22, label %23, label %38

23:                                               ; preds = %18, %13
  %24 = getelementptr inbounds nuw %"class.cv::ml::SVMSGDImpl", ptr %3, i32 0, i32 3
  %25 = getelementptr inbounds nuw %"struct.cv::ml::SVMSGDImpl::SVMSGDParams", ptr %24, i32 0, i32 0
  %26 = load float, ptr %25, align 8, !tbaa !68
  %27 = fcmp ogt float %26, 0.000000e+00
  br i1 %27, label %28, label %38

28:                                               ; preds = %23
  %29 = getelementptr inbounds nuw %"class.cv::ml::SVMSGDImpl", ptr %3, i32 0, i32 3
  %30 = getelementptr inbounds nuw %"struct.cv::ml::SVMSGDImpl::SVMSGDParams", ptr %29, i32 0, i32 1
  %31 = load float, ptr %30, align 4, !tbaa !86
  %32 = fcmp ogt float %31, 0.000000e+00
  br i1 %32, label %33, label %38

33:                                               ; preds = %28
  %34 = getelementptr inbounds nuw %"class.cv::ml::SVMSGDImpl", ptr %3, i32 0, i32 3
  %35 = getelementptr inbounds nuw %"struct.cv::ml::SVMSGDImpl::SVMSGDParams", ptr %34, i32 0, i32 2
  %36 = load float, ptr %35, align 8, !tbaa !87
  %37 = fcmp oge float %36, 0.000000e+00
  br label %38

38:                                               ; preds = %33, %28, %23, %18, %8
  %39 = phi i1 [ false, %28 ], [ false, %23 ], [ false, %18 ], [ false, %8 ], [ %37, %33 ]
  ret i1 %39
}