; Function Attrs: mustprogress nofree norecurse nosync nounwind willreturn memory(argmem: read) uwtable
define hidden noundef zeroext i1 @_ZNK2cv2ml10SVMSGDImpl12isClassifierEv(ptr noundef nonnull readonly align 8 captures(none) dereferenceable(152) %0) unnamed_addr #9 align 2 {
  %2 = getelementptr inbounds nuw i8, ptr %0, i64 144
  %3 = load i32, ptr %2, align 8, !tbaa !117
  %switch = icmp ult i32 %3, 2
  %4 = getelementptr inbounds nuw i8, ptr %0, i64 148
  %5 = load i32, ptr %4, align 4
  %switch4 = icmp ult i32 %5, 2
  %or.cond6 = select i1 %switch, i1 %switch4, i1 false
  br i1 %or.cond6, label %6, label %17

6:                                                ; preds = %1
  %7 = getelementptr inbounds nuw i8, ptr %0, i64 112
  %8 = load float, ptr %7, align 8, !tbaa !96
  %9 = fcmp ogt float %8, 0.000000e+00
  %10 = getelementptr inbounds nuw i8, ptr %0, i64 116
  %11 = load float, ptr %10, align 4
  %12 = fcmp ogt float %11, 0.000000e+00
  %or.cond = select i1 %9, i1 %12, i1 false
  br i1 %or.cond, label %13, label %17

13:                                               ; preds = %6
  %14 = getelementptr inbounds nuw i8, ptr %0, i64 120
  %15 = load float, ptr %14, align 8, !tbaa !129
  %16 = fcmp oge float %15, 0.000000e+00
  br label %17

17:                                               ; preds = %1, %13, %6
  %18 = phi i1 [ false, %6 ], [ %16, %13 ], [ false, %1 ]
  ret i1 %18
}